target datalayout = "e-m:e-p270:32:32-p271:32:32-p272:64:64-i64:64-i128:128-f80:128-n8:16:32:64-S128"
target triple = "x86_64-pc-linux-gnu"

%"class.base::BasicStringPiece" = type { ptr, i64 }
%"class.base::BasicStringPiece.0" = type { ptr, i64 }

; Function Attrs: mustprogress nounwind uwtable
define available_externally noundef signext i8 @_ZNK4base16BasicStringPieceINSt7__cxx1112basic_stringIcSt11char_traitsIcESaIcEEEEixEm(ptr noundef nonnull align 8 dereferenceable(16) %0, i64 noundef %1) #0 align 2 {
  %3 = alloca ptr, align 8
  %4 = alloca i64, align 8
  store ptr %0, ptr %3, align 8, !tbaa !34
  store i64 %1, ptr %4, align 8, !tbaa !20
  %5 = load ptr, ptr %3, align 8
  %6 = getelementptr inbounds nuw %"class.base::BasicStringPiece", ptr %5, i32 0, i32 0
  %7 = load ptr, ptr %6, align 8, !tbaa !49
  %8 = load i64, ptr %4, align 8, !tbaa !20
  %9 = getelementptr inbounds nuw i8, ptr %7, i64 %8
  %10 = load i8, ptr %9, align 1, !tbaa !29
  ret i8 %10
}

; Function Attrs: inlinehint mustprogress nounwind uwtable
define linkonce_odr noundef zeroext i16 @_ZN4base12ToLowerASCIIEt(i16 noundef zeroext %0) #7 comdat {
  %2 = alloca i16, align 2
  store i16 %0, ptr %2, align 2, !tbaa !31
  %3 = load i16, ptr %2, align 2, !tbaa !31
  %4 = zext i16 %3 to i32
  %5 = icmp sge i32 %4, 65
  br i1 %5, label %6, label %14

6:                                                ; preds = %1
  %7 = load i16, ptr %2, align 2, !tbaa !31
  %8 = zext i16 %7 to i32
  %9 = icmp sle i32 %8, 90
  br i1 %9, label %10, label %14

10:                                               ; preds = %6
  %11 = load i16, ptr %2, align 2, !tbaa !31
  %12 = zext i16 %11 to i32
  %13 = add nsw i32 %12, 32
  br label %17

14:                                               ; preds = %6, %1
  %15 = load i16, ptr %2, align 2, !tbaa !31
  %16 = zext i16 %15 to i32
  br label %17

17:                                               ; preds = %14, %10
  %18 = phi i32 [ %13, %10 ], [ %16, %14 ]
  %19 = trunc i32 %18 to i16
  ret i16 %19
}

; Function Attrs: mustprogress nounwind uwtable
define available_externally noundef zeroext i16 @_ZNK4base16BasicStringPieceINSt7__cxx1112basic_stringItNS_20string16_char_traitsESaItEEEEixEm(ptr noundef nonnull align 8 dereferenceable(16) %0, i64 noundef %1) #0 align 2 {
  %3 = alloca ptr, align 8
  %4 = alloca i64, align 8
  store ptr %0, ptr %3, align 8, !tbaa !38
  store i64 %1, ptr %4, align 8, !tbaa !20
  %5 = load ptr, ptr %3, align 8
  %6 = getelementptr inbounds nuw %"class.base::BasicStringPiece.0", ptr %5, i32 0, i32 0
  %7 = load ptr, ptr %6, align 8, !tbaa !48
  %8 = load i64, ptr %4, align 8, !tbaa !20
  %9 = getelementptr inbounds nuw i16, ptr %7, i64 %8
  %10 = load i16, ptr %9, align 2, !tbaa !31
  ret i16 %10
}

; Function Attrs: mustprogress nounwind uwtable
define available_externally noundef i64 @_ZNK4base16BasicStringPieceINSt7__cxx1112basic_stringIcSt11char_traitsIcESaIcEEEE4sizeEv(ptr noundef nonnull align 8 dereferenceable(16) %0) #0 align 2 {
  %2 = alloca ptr, align 8
  store ptr %0, ptr %2, align 8, !tbaa !34
  %3 = load ptr, ptr %2, align 8
  %4 = getelementptr inbounds nuw %"class.base::BasicStringPiece", ptr %3, i32 0, i32 1
  %5 = load i64, ptr %4, align 8, !tbaa !36
  ret i64 %5
}

; Function Attrs: mustprogress nounwind uwtable
define available_externally noundef i64 @_ZNK4base16BasicStringPieceINSt7__cxx1112basic_stringItNS_20string16_char_traitsESaItEEEE4sizeEv(ptr noundef nonnull align 8 dereferenceable(16) %0) #0 align 2 {
  %2 = alloca ptr, align 8
  store ptr %0, ptr %2, align 8, !tbaa !38
  %3 = load ptr, ptr %2, align 8
  %4 = getelementptr inbounds nuw %"class.base::BasicStringPiece.0", ptr %3, i32 0, i32 1
  %5 = load i64, ptr %4, align 8, !tbaa !40
  ret i64 %5
}

; Function Attrs: inlinehint mustprogress nounwind uwtable
define internal noundef zeroext i1 @_ZN4baseL22DoLowerCaseEqualsASCIIINSt7__cxx1112basic_stringItNS_20string16_char_traitsESaItEEEEEbNS_16BasicStringPieceIT_EENS6_INS2_IcSt11char_traitsIcESaIcEEEEE(ptr %0, i64 %1, ptr %2, i64 %3) #7 {
  %5 = alloca i1, align 1
  %6 = alloca %"class.base::BasicStringPiece.0", align 8
  %7 = alloca %"class.base::BasicStringPiece", align 8
  %8 = alloca i64, align 8
  %9 = alloca i32, align 4
  %10 = getelementptr inbounds nuw { ptr, i64 }, ptr %6, i32 0, i32 0
  store ptr %0, ptr %10, align 8
  %11 = getelementptr inbounds nuw { ptr, i64 }, ptr %6, i32 0, i32 1
  store i64 %1, ptr %11, align 8
  %12 = getelementptr inbounds nuw { ptr, i64 }, ptr %7, i32 0, i32 0
  store ptr %2, ptr %12, align 8
  %13 = getelementptr inbounds nuw { ptr, i64 }, ptr %7, i32 0, i32 1
  store i64 %3, ptr %13, align 8
  %14 = call noundef i64 @_ZNK4base16BasicStringPieceINSt7__cxx1112basic_stringItNS_20string16_char_traitsESaItEEEE4sizeEv(ptr noundef nonnull align 8 dereferenceable(16) %6)
  %15 = call noundef i64 @_ZNK4base16BasicStringPieceINSt7__cxx1112basic_stringIcSt11char_traitsIcESaIcEEEE4sizeEv(ptr noundef nonnull align 8 dereferenceable(16) %7)
  %16 = icmp ne i64 %14, %15
  br i1 %16, label %17, label %18

17:                                               ; preds = %4
  store i1 false, ptr %5, align 1
  br label %41

18:                                               ; preds = %4
  call void @llvm.lifetime.start.p0(i64 8, ptr %8) #17
  store i64 0, ptr %8, align 8, !tbaa !20
  br label %19

19:                                               ; preds = %35, %18
  %20 = load i64, ptr %8, align 8, !tbaa !20
  %21 = call noundef i64 @_ZNK4base16BasicStringPieceINSt7__cxx1112basic_stringItNS_20string16_char_traitsESaItEEEE4sizeEv(ptr noundef nonnull align 8 dereferenceable(16) %6)
  %22 = icmp ult i64 %20, %21
  br i1 %22, label %24, label %23

23:                                               ; preds = %19
  store i32 2, ptr %9, align 4
  br label %38

24:                                               ; preds = %19
  %25 = load i64, ptr %8, align 8, !tbaa !20
  %26 = call noundef zeroext i16 @_ZNK4base16BasicStringPieceINSt7__cxx1112basic_stringItNS_20string16_char_traitsESaItEEEEixEm(ptr noundef nonnull align 8 dereferenceable(16) %6, i64 noundef %25)
  %27 = call noundef zeroext i16 @_ZN4base12ToLowerASCIIEt(i16 noundef zeroext %26)
  %28 = zext i16 %27 to i32
  %29 = load i64, ptr %8, align 8, !tbaa !20
  %30 = call noundef signext i8 @_ZNK4base16BasicStringPieceINSt7__cxx1112basic_stringIcSt11char_traitsIcESaIcEEEEixEm(ptr noundef nonnull align 8 dereferenceable(16) %7, i64 noundef %29)
  %31 = sext i8 %30 to i32
  %32 = icmp ne i32 %28, %31
  br i1 %32, label %33, label %34

33:                                               ; preds = %24
  store i1 false, ptr %5, align 1
  store i32 1, ptr %9, align 4
  br label %38

34:                                               ; preds = %24
  br label %35

35:                                               ; preds = %34
  %36 = load i64, ptr %8, align 8, !tbaa !20
  %37 = add i64 %36, 1
  store i64 %37, ptr %8, align 8, !tbaa !20
  br label %19, !llvm.loop !85

38:                                               ; preds = %33, %23
  call void @llvm.lifetime.end.p0(i64 8, ptr %8) #17
  %39 = load i32, ptr %9, align 4
  switch i32 %39, label %43 [
    i32 2, label %40
    i32 1, label %41
  ]

40:                                               ; preds = %38
  store i1 true, ptr %5, align 1
  br label %41

41:                                               ; preds = %40, %38, %17
  %42 = load i1, ptr %5, align 1
  ret i1 %42

43:                                               ; preds = %38
  unreachable
}

; Function Attrs: mustprogress uwtable
define noundef zeroext i1 @_ZN4base20LowerCaseEqualsASCIIENS_16BasicStringPieceINSt7__cxx1112basic_stringItNS_20string16_char_traitsESaItEEEEENS0_INS2_IcSt11char_traitsIcESaIcEEEEE(ptr %0, i64 %1, ptr %2, i64 %3) #3 {
  %5 = alloca %"class.base::BasicStringPiece.0", align 8
  %6 = alloca %"class.base::BasicStringPiece", align 8
  %7 = alloca %"class.base::BasicStringPiece.0", align 8
  %8 = alloca %"class.base::BasicStringPiece", align 8
  %9 = getelementptr inbounds nuw { ptr, i64 }, ptr %5, i32 0, i32 0
  store ptr %0, ptr %9, align 8
  %10 = getelementptr inbounds nuw { ptr, i64 }, ptr %5, i32 0, i32 1
  store i64 %1, ptr %10, align 8
  %11 = getelementptr inbounds nuw { ptr, i64 }, ptr %6, i32 0, i32 0
  store ptr %2, ptr %11, align 8
  %12 = getelementptr inbounds nuw { ptr, i64 }, ptr %6, i32 0, i32 1
  store i64 %3, ptr %12, align 8
  call void @llvm.memcpy.p0.p0.i64(ptr align 8 %7, ptr align 8 %5, i64 16, i1 false), !tbaa.struct !23
  call void @llvm.memcpy.p0.p0.i64(ptr align 8 %8, ptr align 8 %6, i64 16, i1 false), !tbaa.struct !17
  %13 = getelementptr inbounds nuw { ptr, i64 }, ptr %7, i32 0, i32 0
  %14 = load ptr, ptr %13, align 8
  %15 = getelementptr inbounds nuw { ptr, i64 }, ptr %7, i32 0, i32 1
  %16 = load i64, ptr %15, align 8
  %17 = getelementptr inbounds nuw { ptr, i64 }, ptr %8, i32 0, i32 0
  %18 = load ptr, ptr %17, align 8
  %19 = getelementptr inbounds nuw { ptr, i64 }, ptr %8, i32 0, i32 1
  %20 = load i64, ptr %19, align 8
  %21 = call noundef zeroext i1 @_ZN4baseL22DoLowerCaseEqualsASCIIINSt7__cxx1112basic_stringItNS_20string16_char_traitsESaItEEEEEbNS_16BasicStringPieceIT_EENS6_INS2_IcSt11char_traitsIcESaIcEEEEE(ptr %14, i64 %16, ptr %18, i64 %20)
  ret i1 %21
}