; Function Attrs: mustprogress nofree norecurse nosync nounwind willreturn memory(argmem: read) uwtable
define noundef zeroext i1 @_ZN4base20LowerCaseEqualsASCIIENS_16BasicStringPieceINSt7__cxx1112basic_stringItNS_20string16_char_traitsESaItEEEEENS0_INS2_IcSt11char_traitsIcESaIcEEEEE(ptr readonly captures(none) %0, i64 %1, ptr readonly captures(none) %2, i64 %3) local_unnamed_addr #5 {
  %.not.i = icmp eq i64 %1, %3
  br i1 %.not.i, label %.preheader.i, label %_ZN4baseL22DoLowerCaseEqualsASCIIINSt7__cxx1112basic_stringItNS_20string16_char_traitsESaItEEEEEbNS_16BasicStringPieceIT_EENS6_INS2_IcSt11char_traitsIcESaIcEEEEE.exit

.preheader.i:                                     ; preds = %4
  %5 = icmp eq i64 %1, 0
  br i1 %5, label %_ZN4baseL22DoLowerCaseEqualsASCIIINSt7__cxx1112basic_stringItNS_20string16_char_traitsESaItEEEEEbNS_16BasicStringPieceIT_EENS6_INS2_IcSt11char_traitsIcESaIcEEEEE.exit, label %.lr.ph.i

.lr.ph.i:                                         ; preds = %.preheader.i, %.lr.ph.i
  %.0511.i = phi i64 [ %15, %.lr.ph.i ], [ 0, %.preheader.i ]
  %6 = getelementptr inbounds nuw i16, ptr %0, i64 %.0511.i
  %7 = load i16, ptr %6, align 2, !tbaa !31
  %8 = add i16 %7, -65
  %or.cond.i.i = icmp ult i16 %8, 26
  %9 = add nuw nsw i16 %7, 32
  %10 = select i1 %or.cond.i.i, i16 %9, i16 %7
  %11 = zext i16 %10 to i32
  %12 = getelementptr inbounds nuw i8, ptr %2, i64 %.0511.i
  %13 = load i8, ptr %12, align 1, !tbaa !20
  %14 = sext i8 %13 to i32
  %.not7.i = icmp eq i32 %11, %14
  %15 = add nuw i64 %.0511.i, 1
  %exitcond.not.i = icmp ne i64 %15, %1
  %or.cond.not = select i1 %.not7.i, i1 %exitcond.not.i, i1 false
  br i1 %or.cond.not, label %.lr.ph.i, label %_ZN4baseL22DoLowerCaseEqualsASCIIINSt7__cxx1112basic_stringItNS_20string16_char_traitsESaItEEEEEbNS_16BasicStringPieceIT_EENS6_INS2_IcSt11char_traitsIcESaIcEEEEE.exit, !llvm.loop !96

_ZN4baseL22DoLowerCaseEqualsASCIIINSt7__cxx1112basic_stringItNS_20string16_char_traitsESaItEEEEEbNS_16BasicStringPieceIT_EENS6_INS2_IcSt11char_traitsIcESaIcEEEEE.exit: ; preds = %.lr.ph.i, %4, %.preheader.i
  %.06.i = phi i1 [ false, %4 ], [ true, %.preheader.i ], [ %.not7.i, %.lr.ph.i ]
  ret i1 %.06.i
}